; Function Attrs: mustprogress nounwind uwtable
define void @_ZN13colvarbias_tiD1Ev(ptr noundef nonnull align 8 dereferenceable(72) %0) unnamed_addr #3 align 2 personality ptr @__gxx_personality_v0 {
  store ptr getelementptr inbounds inrange(-40, 112) ({ [19 x ptr], [69 x ptr], [17 x ptr], [13 x ptr] }, ptr @_ZTV13colvarbias_ti, i64 0, i32 0, i64 5), ptr %0, align 8
  %2 = getelementptr inbounds i8, ptr %0, i64 72
  store ptr getelementptr inbounds inrange(-288, 264) ({ [19 x ptr], [69 x ptr], [17 x ptr], [13 x ptr] }, ptr @_ZTV13colvarbias_ti, i64 0, i32 1, i64 36), ptr %2, align 8
  %3 = getelementptr inbounds i8, ptr %0, i64 384
  store ptr getelementptr inbounds inrange(-72, 64) ({ [19 x ptr], [69 x ptr], [17 x ptr], [13 x ptr] }, ptr @_ZTV13colvarbias_ti, i64 0, i32 2, i64 9), ptr %3, align 8
  %4 = getelementptr inbounds i8, ptr %0, i64 704
  store ptr getelementptr inbounds inrange(-56, 48) ({ [19 x ptr], [69 x ptr], [17 x ptr], [13 x ptr] }, ptr @_ZTV13colvarbias_ti, i64 0, i32 3, i64 7), ptr %4, align 8
  %5 = getelementptr inbounds i8, ptr %0, i64 32
  %6 = load ptr, ptr %5, align 8
  %.not.i.i = icmp eq ptr %6, null
  br i1 %.not.i.i, label %11, label %7

7:                                                ; preds = %1
  %8 = load ptr, ptr %6, align 8
  %9 = getelementptr inbounds i8, ptr %8, i64 56
  %10 = load ptr, ptr %9, align 8
  tail call void %10(ptr noundef nonnull align 8 dereferenceable(720) %6) #23
  store ptr null, ptr %5, align 8
  br label %11

11:                                               ; preds = %7, %1
  %12 = getelementptr inbounds i8, ptr %0, i64 40
  %13 = load ptr, ptr %12, align 8
  %.not2.i.i = icmp eq ptr %13, null
  br i1 %.not2.i.i, label %_ZN13colvarbias_ti16clear_state_dataEv.exit.i, label %14

14:                                               ; preds = %11
  %15 = load ptr, ptr %13, align 8
  %16 = getelementptr inbounds i8, ptr %15, i64 56
  %17 = load ptr, ptr %16, align 8
  tail call void %17(ptr noundef nonnull align 8 dereferenceable(698) %13) #23
  store ptr null, ptr %12, align 8
  br label %_ZN13colvarbias_ti16clear_state_dataEv.exit.i

_ZN13colvarbias_ti16clear_state_dataEv.exit.i:    ; preds = %14, %11
  %18 = getelementptr inbounds i8, ptr %0, i64 48
  %19 = load ptr, ptr %18, align 8
  %.not.i.i.i.i = icmp eq ptr %19, null
  br i1 %.not.i.i.i.i, label %_ZN13colvarbias_tiD2Ev.exit, label %20

20:                                               ; preds = %_ZN13colvarbias_ti16clear_state_dataEv.exit.i
  tail call void @_ZdlPv(ptr noundef nonnull %19) #24
  br label %_ZN13colvarbias_tiD2Ev.exit

_ZN13colvarbias_tiD2Ev.exit:                      ; preds = %_ZN13colvarbias_ti16clear_state_dataEv.exit.i, %20
  %21 = getelementptr inbounds i8, ptr %0, i64 8
  tail call void @_ZNSt6vectorI11colvarvalueSaIS0_EED2Ev(ptr noundef nonnull align 8 dereferenceable(24) %21) #23
  tail call void @_ZN10colvarbiasD2Ev(ptr noundef nonnull align 8 dereferenceable(312) %2, ptr noundef nonnull getelementptr inbounds ([7 x ptr], ptr @_ZTT13colvarbias_ti, i64 0, i64 4)) #23
  tail call void @_ZN10colvardepsD2Ev(ptr noundef nonnull align 8 dereferenceable(120) %4) #23
  tail call void @_ZN11colvarparseD2Ev(ptr noundef nonnull align 8 dereferenceable(320) %3) #23
  ret void
}